target datalayout = "e-m:e-p270:32:32-p271:32:32-p272:64:64-i64:64-i128:128-f80:128-n8:16:32:64-S128"
target triple = "x86_64-pc-linux-gnu"

%class.Node = type <{ ptr, ptr, ptr, i32, i32, i32, i32, i32, i32, i32, [4 x i8] }>

; Function Attrs: mustprogress nounwind uwtable
define linkonce_odr hidden noundef ptr @_ZNK4Node7as_LoadEv(ptr noundef nonnull align 8 dereferenceable(52) %0) #1 comdat align 2 {
  %2 = alloca ptr, align 8
  store ptr %0, ptr %2, align 8
  %3 = load ptr, ptr %2, align 8
  ret ptr %3
}

; Function Attrs: mustprogress nounwind uwtable
define linkonce_odr hidden noundef zeroext i1 @_ZNK4Node7is_LoadEv(ptr noundef nonnull align 8 dereferenceable(52) %0) #1 comdat align 2 {
  %2 = alloca ptr, align 8
  store ptr %0, ptr %2, align 8
  %3 = load ptr, ptr %2, align 8
  %4 = getelementptr inbounds %class.Node, ptr %3, i32 0, i32 8
  %5 = load i32, ptr %4, align 4
  %6 = and i32 %5, 63
  %7 = icmp eq i32 %6, 48
  ret i1 %7
}

; Function Attrs: mustprogress nounwind uwtable
define hidden noundef ptr @_ZN14PhaseIdealLoop13get_late_ctrlEP4NodeS1_(ptr noundef nonnull align 8 dereferenceable(237) %0, ptr noundef %1, ptr noundef %2) #1 align 2 {
  %4 = alloca ptr, align 8
  %5 = alloca ptr, align 8
  %6 = alloca ptr, align 8
  %7 = alloca ptr, align 8
  store ptr %0, ptr %4, align 8
  store ptr %1, ptr %5, align 8
  store ptr %2, ptr %6, align 8
  %8 = load ptr, ptr %4, align 8
  %9 = load ptr, ptr %5, align 8
  %10 = load ptr, ptr %6, align 8
  %11 = call noundef ptr @_ZN14PhaseIdealLoop19compute_lca_of_usesEP4NodeS1_b(ptr noundef nonnull align 8 dereferenceable(237) %8, ptr noundef %9, ptr noundef %10, i1 noundef zeroext false)
  store ptr %11, ptr %7, align 8
  %12 = load ptr, ptr %5, align 8
  %13 = call noundef zeroext i1 @_ZNK4Node7is_LoadEv(ptr noundef nonnull align 8 dereferenceable(52) %12)
  br i1 %13, label %14, label %24

14:                                               ; preds = %3
  %15 = load ptr, ptr %7, align 8
  %16 = load ptr, ptr %6, align 8
  %17 = icmp ne ptr %15, %16
  br i1 %17, label %18, label %24

18:                                               ; preds = %14
  %19 = load ptr, ptr %5, align 8
  %20 = call noundef ptr @_ZNK4Node7as_LoadEv(ptr noundef nonnull align 8 dereferenceable(52) %19)
  %21 = load ptr, ptr %6, align 8
  %22 = load ptr, ptr %7, align 8
  %23 = call noundef ptr @_ZN14PhaseIdealLoop27get_late_ctrl_with_anti_depEP8LoadNodeP4NodeS3_(ptr noundef nonnull align 8 dereferenceable(237) %8, ptr noundef %20, ptr noundef %21, ptr noundef %22)
  store ptr %23, ptr %7, align 8
  br label %24

24:                                               ; preds = %18, %14, %3
  %25 = load ptr, ptr %7, align 8
  ret ptr %25
}