; Function Attrs: mustprogress nounwind uwtable
define hidden noundef ptr @_ZN14PhaseIdealLoop13get_late_ctrlEP4NodeS1_(ptr noundef nonnull align 8 dereferenceable(237) %0, ptr noundef %1, ptr noundef %2) local_unnamed_addr #0 align 2 {
  %4 = tail call noundef ptr @_ZN14PhaseIdealLoop19compute_lca_of_usesEP4NodeS1_b(ptr noundef nonnull align 8 dereferenceable(237) %0, ptr noundef %1, ptr noundef %2, i1 zeroext poison)
  %5 = getelementptr inbounds i8, ptr %1, i64 44
  %6 = load i32, ptr %5, align 4
  %7 = and i32 %6, 63
  %8 = icmp ne i32 %7, 48
  %.not = icmp eq ptr %4, %2
  %or.cond = or i1 %.not, %8
  br i1 %or.cond, label %11, label %9

9:                                                ; preds = %3
  %10 = tail call noundef ptr @_ZN14PhaseIdealLoop27get_late_ctrl_with_anti_depEP8LoadNodeP4NodeS3_(ptr noundef nonnull align 8 dereferenceable(237) %0, ptr noundef nonnull %1, ptr noundef %2, ptr noundef %4)
  br label %11

11:                                               ; preds = %9, %3
  %.0 = phi ptr [ %10, %9 ], [ %4, %3 ]
  ret ptr %.0
}